; Function Attrs: nofree norecurse nosync nounwind memory(readwrite, inaccessiblemem: none) uwtable
define i64 @SUNDlsMat_BandGBTRF(ptr noundef readonly captures(none) %0, ptr noundef writeonly captures(none) %1) local_unnamed_addr #0 {
  %3 = getelementptr inbounds nuw i8, ptr %0, i64 72
  %4 = load ptr, ptr %3, align 8, !tbaa !3
  %5 = getelementptr inbounds nuw i8, ptr %0, i64 8
  %6 = load i64, ptr %5, align 8, !tbaa !12
  %7 = getelementptr inbounds nuw i8, ptr %0, i64 32
  %8 = load i64, ptr %7, align 8, !tbaa !13
  %9 = getelementptr inbounds nuw i8, ptr %0, i64 40
  %10 = load i64, ptr %9, align 8, !tbaa !14
  %11 = getelementptr inbounds nuw i8, ptr %0, i64 48
  %12 = load i64, ptr %11, align 8, !tbaa !15
  %13 = tail call i64 @SUNDlsMat_bandGBTRF(ptr noundef %4, i64 noundef %6, i64 noundef %8, i64 noundef %10, i64 noundef %12, ptr noundef %1)
  ret i64 %13
}